target datalayout = "e-m:e-p270:32:32-p271:32:32-p272:64:64-i64:64-i128:128-f80:128-n8:16:32:64-S128"
target triple = "x86_64-pc-linux-gnu"

%struct._SPI_connection = type { i64, ptr, i32, %struct.slist_head, ptr, ptr, ptr, i32, ptr, i8, i8, i64, ptr, i32 }
%struct.slist_head = type { %struct.slist_node }
%struct.slist_node = type { ptr }
%struct._SPI_plan = type { i32, i8, i8, ptr, ptr, i32, i32, i32, ptr, ptr, ptr }
%struct.ParamListInfoData = type { ptr, ptr, ptr, ptr, ptr, ptr, ptr, i32, [0 x %struct.ParamExternData] }
%struct.ParamExternData = type { i64, i8, i16, i32 }

@SPI_result = dso_local global i32 0, align 4
@.str.1 = private unnamed_addr constant [6 x i8] c"spi.c\00", align 1
@_SPI_current = internal global ptr null, align 8
@.str.10 = private unnamed_addr constant [56 x i8] c"SPI_cursor_open_with_args called with invalid arguments\00", align 1
@__func__.SPI_cursor_open_with_args = private unnamed_addr constant [26 x i8] c"SPI_cursor_open_with_args\00", align 1
@.str.11 = private unnamed_addr constant [57 x i8] c"SPI_cursor_open_with_args called with missing parameters\00", align 1
@.str.12 = private unnamed_addr constant [53 x i8] c"SPI_cursor_open_with_args called while not connected\00", align 1
@CurrentMemoryContext = external global ptr, align 8

; Function Attrs: inlinehint nounwind uwtable
define internal ptr @MemoryContextSwitchTo(ptr noundef %0) #4 {
  %2 = alloca ptr, align 8
  %3 = alloca ptr, align 8
  store ptr %0, ptr %2, align 8
  call void @llvm.lifetime.start.p0(i64 8, ptr %3) #9
  %4 = load ptr, ptr @CurrentMemoryContext, align 8
  store ptr %4, ptr %3, align 8
  %5 = load ptr, ptr %2, align 8
  store ptr %5, ptr @CurrentMemoryContext, align 8
  %6 = load ptr, ptr %3, align 8
  call void @llvm.lifetime.end.p0(i64 8, ptr %3) #9
  ret ptr %6
}

; Function Attrs: nounwind uwtable
define internal ptr @_SPI_procmem() #0 {
  %1 = load ptr, ptr @_SPI_current, align 8
  %2 = getelementptr inbounds nuw %struct._SPI_connection, ptr %1, i32 0, i32 4
  %3 = load ptr, ptr %2, align 8
  %4 = call ptr @MemoryContextSwitchTo(ptr noundef %3)
  ret ptr %4
}

; Function Attrs: nounwind uwtable
define internal ptr @_SPI_execmem() #0 {
  %1 = load ptr, ptr @_SPI_current, align 8
  %2 = getelementptr inbounds nuw %struct._SPI_connection, ptr %1, i32 0, i32 5
  %3 = load ptr, ptr %2, align 8
  %4 = call ptr @MemoryContextSwitchTo(ptr noundef %3)
  ret ptr %4
}

; Function Attrs: nounwind uwtable
define internal i32 @_SPI_end_call(i1 noundef zeroext %0) #0 {
  %2 = alloca i8, align 1
  %3 = zext i1 %0 to i8
  store i8 %3, ptr %2, align 1
  %4 = load i8, ptr %2, align 1, !range !4, !noundef !5
  %5 = trunc i8 %4 to i1
  br i1 %5, label %6, label %13

6:                                                ; preds = %1
  %7 = call ptr @_SPI_procmem()
  %8 = load ptr, ptr @_SPI_current, align 8
  %9 = getelementptr inbounds nuw %struct._SPI_connection, ptr %8, i32 0, i32 2
  store i32 0, ptr %9, align 8
  %10 = load ptr, ptr @_SPI_current, align 8
  %11 = getelementptr inbounds nuw %struct._SPI_connection, ptr %10, i32 0, i32 5
  %12 = load ptr, ptr %11, align 8
  call void @MemoryContextReset(ptr noundef %12)
  br label %13

13:                                               ; preds = %6, %1
  ret i32 0
}

; Function Attrs: nounwind uwtable
define internal ptr @_SPI_convert_params(i32 noundef %0, ptr noundef %1, ptr noundef %2, ptr noundef %3) #0 {
  %5 = alloca i32, align 4
  %6 = alloca ptr, align 8
  %7 = alloca ptr, align 8
  %8 = alloca ptr, align 8
  %9 = alloca ptr, align 8
  %10 = alloca i32, align 4
  %11 = alloca ptr, align 8
  store i32 %0, ptr %5, align 4
  store ptr %1, ptr %6, align 8
  store ptr %2, ptr %7, align 8
  store ptr %3, ptr %8, align 8
  call void @llvm.lifetime.start.p0(i64 8, ptr %9) #9
  %12 = load i32, ptr %5, align 4
  %13 = icmp sgt i32 %12, 0
  br i1 %13, label %14, label %63

14:                                               ; preds = %4
  %15 = load i32, ptr %5, align 4
  %16 = call ptr @makeParamList(i32 noundef %15)
  store ptr %16, ptr %9, align 8
  call void @llvm.lifetime.start.p0(i64 4, ptr %10) #9
  store i32 0, ptr %10, align 4
  br label %17

17:                                               ; preds = %59, %14
  %18 = load i32, ptr %10, align 4
  %19 = load i32, ptr %5, align 4
  %20 = icmp slt i32 %18, %19
  br i1 %20, label %22, label %21

21:                                               ; preds = %17
  call void @llvm.lifetime.end.p0(i64 4, ptr %10) #9
  br label %62

22:                                               ; preds = %17
  call void @llvm.lifetime.start.p0(i64 8, ptr %11) #9
  %23 = load ptr, ptr %9, align 8
  %24 = getelementptr inbounds nuw %struct.ParamListInfoData, ptr %23, i32 0, i32 8
  %25 = load i32, ptr %10, align 4
  %26 = sext i32 %25 to i64
  %27 = getelementptr inbounds [0 x %struct.ParamExternData], ptr %24, i64 0, i64 %26
  store ptr %27, ptr %11, align 8
  %28 = load ptr, ptr %7, align 8
  %29 = load i32, ptr %10, align 4
  %30 = sext i32 %29 to i64
  %31 = getelementptr inbounds i64, ptr %28, i64 %30
  %32 = load i64, ptr %31, align 8
  %33 = load ptr, ptr %11, align 8
  %34 = getelementptr inbounds nuw %struct.ParamExternData, ptr %33, i32 0, i32 0
  store i64 %32, ptr %34, align 8
  %35 = load ptr, ptr %8, align 8
  %36 = icmp ne ptr %35, null
  br i1 %36, label %37, label %45

37:                                               ; preds = %22
  %38 = load ptr, ptr %8, align 8
  %39 = load i32, ptr %10, align 4
  %40 = sext i32 %39 to i64
  %41 = getelementptr inbounds i8, ptr %38, i64 %40
  %42 = load i8, ptr %41, align 1
  %43 = sext i8 %42 to i32
  %44 = icmp eq i32 %43, 110
  br label %45

45:                                               ; preds = %37, %22
  %46 = phi i1 [ false, %22 ], [ %44, %37 ]
  %47 = load ptr, ptr %11, align 8
  %48 = getelementptr inbounds nuw %struct.ParamExternData, ptr %47, i32 0, i32 1
  %49 = zext i1 %46 to i8
  store i8 %49, ptr %48, align 8
  %50 = load ptr, ptr %11, align 8
  %51 = getelementptr inbounds nuw %struct.ParamExternData, ptr %50, i32 0, i32 2
  store i16 1, ptr %51, align 2
  %52 = load ptr, ptr %6, align 8
  %53 = load i32, ptr %10, align 4
  %54 = sext i32 %53 to i64
  %55 = getelementptr inbounds i32, ptr %52, i64 %54
  %56 = load i32, ptr %55, align 4
  %57 = load ptr, ptr %11, align 8
  %58 = getelementptr inbounds nuw %struct.ParamExternData, ptr %57, i32 0, i32 3
  store i32 %56, ptr %58, align 4
  call void @llvm.lifetime.end.p0(i64 8, ptr %11) #9
  br label %59

59:                                               ; preds = %45
  %60 = load i32, ptr %10, align 4
  %61 = add i32 %60, 1
  store i32 %61, ptr %10, align 4
  br label %17, !llvm.loop !13

62:                                               ; preds = %21
  br label %64

63:                                               ; preds = %4
  store ptr null, ptr %9, align 8
  br label %64

64:                                               ; preds = %63, %62
  %65 = load ptr, ptr %9, align 8
  call void @llvm.lifetime.end.p0(i64 8, ptr %9) #9
  ret ptr %65
}

; Function Attrs: nounwind uwtable
define internal i32 @_SPI_begin_call(i1 noundef zeroext %0) #0 {
  %2 = alloca i32, align 4
  %3 = alloca i8, align 1
  %4 = zext i1 %0 to i8
  store i8 %4, ptr %3, align 1
  %5 = load ptr, ptr @_SPI_current, align 8
  %6 = icmp eq ptr %5, null
  br i1 %6, label %7, label %8

7:                                                ; preds = %1
  store i32 -4, ptr %2, align 4
  br label %17

8:                                                ; preds = %1
  %9 = load i8, ptr %3, align 1, !range !4, !noundef !5
  %10 = trunc i8 %9 to i1
  br i1 %10, label %11, label %16

11:                                               ; preds = %8
  %12 = call i32 @GetCurrentSubTransactionId()
  %13 = load ptr, ptr @_SPI_current, align 8
  %14 = getelementptr inbounds nuw %struct._SPI_connection, ptr %13, i32 0, i32 2
  store i32 %12, ptr %14, align 8
  %15 = call ptr @_SPI_execmem()
  br label %16

16:                                               ; preds = %11, %8
  store i32 0, ptr %2, align 4
  br label %17

17:                                               ; preds = %16, %7
  %18 = load i32, ptr %2, align 4
  ret i32 %18
}

; Function Attrs: nounwind uwtable
define dso_local ptr @SPI_cursor_open_with_args(ptr noundef %0, ptr noundef %1, i32 noundef %2, ptr noundef %3, ptr noundef %4, ptr noundef %5, i1 noundef zeroext %6, i32 noundef %7) #0 {
  %9 = alloca ptr, align 8
  %10 = alloca ptr, align 8
  %11 = alloca i32, align 4
  %12 = alloca ptr, align 8
  %13 = alloca ptr, align 8
  %14 = alloca ptr, align 8
  %15 = alloca i8, align 1
  %16 = alloca i32, align 4
  %17 = alloca ptr, align 8
  %18 = alloca %struct._SPI_plan, align 8
  %19 = alloca ptr, align 8
  store ptr %0, ptr %9, align 8
  store ptr %1, ptr %10, align 8
  store i32 %2, ptr %11, align 4
  store ptr %3, ptr %12, align 8
  store ptr %4, ptr %13, align 8
  store ptr %5, ptr %14, align 8
  %20 = zext i1 %6 to i8
  store i8 %20, ptr %15, align 1
  store i32 %7, ptr %16, align 4
  call void @llvm.lifetime.start.p0(i64 8, ptr %17) #9
  call void @llvm.lifetime.start.p0(i64 64, ptr %18) #9
  call void @llvm.lifetime.start.p0(i64 8, ptr %19) #9
  %21 = load ptr, ptr %10, align 8
  %22 = icmp eq ptr %21, null
  br i1 %22, label %26, label %23

23:                                               ; preds = %8
  %24 = load i32, ptr %11, align 4
  %25 = icmp slt i32 %24, 0
  br i1 %25, label %26, label %37

26:                                               ; preds = %23, %8
  br label %27

27:                                               ; preds = %26
  br i1 true, label %28, label %30

28:                                               ; preds = %27
  %29 = call zeroext i1 @errstart_cold(i32 noundef 21, ptr noundef null) #10
  br i1 %29, label %32, label %34

30:                                               ; preds = %27
  %31 = call zeroext i1 @errstart(i32 noundef 21, ptr noundef null)
  br i1 %31, label %32, label %34

32:                                               ; preds = %30, %28
  %33 = call i32 (ptr, ...) @errmsg_internal(ptr noundef @.str.10)
  call void @errfinish(ptr noundef @.str.1, i32 noundef 1483, ptr noundef @__func__.SPI_cursor_open_with_args)
  br label %34

34:                                               ; preds = %32, %30, %28
  unreachable

35:                                               ; No predecessors!
  br label %36

36:                                               ; preds = %35
  br label %37

37:                                               ; preds = %36, %23
  %38 = load i32, ptr %11, align 4
  %39 = icmp sgt i32 %38, 0
  br i1 %39, label %40, label %57

40:                                               ; preds = %37
  %41 = load ptr, ptr %12, align 8
  %42 = icmp eq ptr %41, null
  br i1 %42, label %46, label %43

43:                                               ; preds = %40
  %44 = load ptr, ptr %13, align 8
  %45 = icmp eq ptr %44, null
  br i1 %45, label %46, label %57

46:                                               ; preds = %43, %40
  br label %47

47:                                               ; preds = %46
  br i1 true, label %48, label %50

48:                                               ; preds = %47
  %49 = call zeroext i1 @errstart_cold(i32 noundef 21, ptr noundef null) #10
  br i1 %49, label %52, label %54

50:                                               ; preds = %47
  %51 = call zeroext i1 @errstart(i32 noundef 21, ptr noundef null)
  br i1 %51, label %52, label %54

52:                                               ; preds = %50, %48
  %53 = call i32 (ptr, ...) @errmsg_internal(ptr noundef @.str.11)
  call void @errfinish(ptr noundef @.str.1, i32 noundef 1486, ptr noundef @__func__.SPI_cursor_open_with_args)
  br label %54

54:                                               ; preds = %52, %50, %48
  unreachable

55:                                               ; No predecessors!
  br label %56

56:                                               ; preds = %55
  br label %57

57:                                               ; preds = %56, %43, %37
  %58 = call i32 @_SPI_begin_call(i1 noundef zeroext true)
  store i32 %58, ptr @SPI_result, align 4
  %59 = load i32, ptr @SPI_result, align 4
  %60 = icmp slt i32 %59, 0
  br i1 %60, label %61, label %72

61:                                               ; preds = %57
  br label %62

62:                                               ; preds = %61
  br i1 true, label %63, label %65

63:                                               ; preds = %62
  %64 = call zeroext i1 @errstart_cold(i32 noundef 21, ptr noundef null) #10
  br i1 %64, label %67, label %69

65:                                               ; preds = %62
  %66 = call zeroext i1 @errstart(i32 noundef 21, ptr noundef null)
  br i1 %66, label %67, label %69

67:                                               ; preds = %65, %63
  %68 = call i32 (ptr, ...) @errmsg_internal(ptr noundef @.str.12)
  call void @errfinish(ptr noundef @.str.1, i32 noundef 1490, ptr noundef @__func__.SPI_cursor_open_with_args)
  br label %69

69:                                               ; preds = %67, %65, %63
  unreachable

70:                                               ; No predecessors!
  br label %71

71:                                               ; preds = %70
  br label %72

72:                                               ; preds = %71, %57
  call void @llvm.memset.p0.i64(ptr align 8 %18, i8 0, i64 64, i1 false)
  %73 = getelementptr inbounds nuw %struct._SPI_plan, ptr %18, i32 0, i32 0
  store i32 569278163, ptr %73, align 8
  %74 = getelementptr inbounds nuw %struct._SPI_plan, ptr %18, i32 0, i32 5
  store i32 0, ptr %74, align 8
  %75 = load i32, ptr %16, align 4
  %76 = getelementptr inbounds nuw %struct._SPI_plan, ptr %18, i32 0, i32 6
  store i32 %75, ptr %76, align 4
  %77 = load i32, ptr %11, align 4
  %78 = getelementptr inbounds nuw %struct._SPI_plan, ptr %18, i32 0, i32 7
  store i32 %77, ptr %78, align 8
  %79 = load ptr, ptr %12, align 8
  %80 = getelementptr inbounds nuw %struct._SPI_plan, ptr %18, i32 0, i32 8
  store ptr %79, ptr %80, align 8
  %81 = getelementptr inbounds nuw %struct._SPI_plan, ptr %18, i32 0, i32 9
  store ptr null, ptr %81, align 8
  %82 = getelementptr inbounds nuw %struct._SPI_plan, ptr %18, i32 0, i32 10
  store ptr null, ptr %82, align 8
  %83 = load i32, ptr %11, align 4
  %84 = load ptr, ptr %12, align 8
  %85 = load ptr, ptr %13, align 8
  %86 = load ptr, ptr %14, align 8
  %87 = call ptr @_SPI_convert_params(i32 noundef %83, ptr noundef %84, ptr noundef %85, ptr noundef %86)
  store ptr %87, ptr %19, align 8
  %88 = load ptr, ptr %10, align 8
  call void @_SPI_prepare_plan(ptr noundef %88, ptr noundef %18)
  %89 = load ptr, ptr %9, align 8
  %90 = load ptr, ptr %19, align 8
  %91 = load i8, ptr %15, align 1, !range !4, !noundef !5
  %92 = trunc i8 %91 to i1
  %93 = call ptr @SPI_cursor_open_internal(ptr noundef %89, ptr noundef %18, ptr noundef %90, i1 noundef zeroext %92)
  store ptr %93, ptr %17, align 8
  %94 = call i32 @_SPI_end_call(i1 noundef zeroext true)
  %95 = load ptr, ptr %17, align 8
  call void @llvm.lifetime.end.p0(i64 8, ptr %19) #9
  call void @llvm.lifetime.end.p0(i64 64, ptr %18) #9
  call void @llvm.lifetime.end.p0(i64 8, ptr %17) #9
  ret ptr %95
}