; Function Attrs: nounwind uwtable
define dso_local ptr @SPI_cursor_open_with_args(ptr noundef %0, ptr noundef %1, i32 noundef %2, ptr noundef %3, ptr noundef readonly captures(address_is_null) %4, ptr noundef readonly captures(address_is_null) %5, i1 noundef zeroext %6, i32 noundef %7) local_unnamed_addr #0 {
  %9 = alloca %struct._SPI_plan, align 8
  call void @llvm.lifetime.start.p0(i64 64, ptr nonnull %9) #15
  %10 = icmp eq ptr %1, null
  %11 = icmp slt i32 %2, 0
  %or.cond = or i1 %10, %11
  br i1 %or.cond, label %12, label %15

12:                                               ; preds = %8
  %13 = tail call zeroext i1 @errstart_cold(i32 noundef 21, ptr noundef null) #14
  tail call void @llvm.assume(i1 %13)
  %14 = tail call i32 (ptr, ...) @errmsg_internal(ptr noundef nonnull @.str.10) #15
  tail call void @errfinish(ptr noundef nonnull @.str.1, i32 noundef 1483, ptr noundef nonnull @__func__.SPI_cursor_open_with_args) #15
  unreachable

15:                                               ; preds = %8
  %.not = icmp eq i32 %2, 0
  br i1 %.not, label %22, label %16

16:                                               ; preds = %15
  %17 = icmp eq ptr %3, null
  %18 = icmp eq ptr %4, null
  %or.cond3 = or i1 %17, %18
  br i1 %or.cond3, label %19, label %22

19:                                               ; preds = %16
  %20 = tail call zeroext i1 @errstart_cold(i32 noundef 21, ptr noundef null) #14
  tail call void @llvm.assume(i1 %20)
  %21 = tail call i32 (ptr, ...) @errmsg_internal(ptr noundef nonnull @.str.11) #15
  tail call void @errfinish(ptr noundef nonnull @.str.1, i32 noundef 1486, ptr noundef nonnull @__func__.SPI_cursor_open_with_args) #15
  unreachable

22:                                               ; preds = %16, %15
  %23 = load ptr, ptr @_SPI_current, align 8
  %.not22 = icmp eq ptr %23, null
  br i1 %.not22, label %_SPI_begin_call.exit, label %_SPI_begin_call.exit.thread

_SPI_begin_call.exit.thread:                      ; preds = %22
  %24 = tail call i32 @GetCurrentSubTransactionId() #15
  %25 = load ptr, ptr @_SPI_current, align 8
  %26 = getelementptr inbounds nuw i8, ptr %25, i64 16
  store i32 %24, ptr %26, align 8
  %27 = getelementptr inbounds nuw i8, ptr %25, i64 40
  %28 = load ptr, ptr %27, align 8
  store ptr %28, ptr @CurrentMemoryContext, align 8
  store i32 0, ptr @SPI_result, align 4
  call void @llvm.memset.p0.i64(ptr noundef nonnull align 8 dereferenceable(64) %9, i8 0, i64 40, i1 false)
  store i32 569278163, ptr %9, align 8
  %29 = getelementptr inbounds nuw i8, ptr %9, i64 28
  store i32 %7, ptr %29, align 4
  %30 = getelementptr inbounds nuw i8, ptr %9, i64 32
  store i32 %2, ptr %30, align 8
  %31 = getelementptr inbounds nuw i8, ptr %9, i64 40
  store ptr %3, ptr %31, align 8
  %32 = getelementptr inbounds nuw i8, ptr %9, i64 48
  call void @llvm.memset.p0.i64(ptr noundef nonnull align 8 dereferenceable(16) %32, i8 0, i64 16, i1 false)
  br i1 %.not, label %_SPI_convert_params.exit, label %35

_SPI_begin_call.exit:                             ; preds = %22
  store i32 -4, ptr @SPI_result, align 4
  %33 = tail call zeroext i1 @errstart_cold(i32 noundef 21, ptr noundef null) #14
  tail call void @llvm.assume(i1 %33)
  %34 = tail call i32 (ptr, ...) @errmsg_internal(ptr noundef nonnull @.str.12) #15
  tail call void @errfinish(ptr noundef nonnull @.str.1, i32 noundef 1490, ptr noundef nonnull @__func__.SPI_cursor_open_with_args) #15
  unreachable

35:                                               ; preds = %_SPI_begin_call.exit.thread
  %36 = tail call ptr @makeParamList(i32 noundef %2) #15
  %37 = getelementptr inbounds nuw i8, ptr %36, i64 64
  %.not.i = icmp eq ptr %5, null
  %wide.trip.count27.i = zext nneg i32 %2 to i64
  br i1 %.not.i, label %.split.us.i, label %.split.i

.split.us.i:                                      ; preds = %35, %.split.us.i
  %indvars.iv24.i = phi i64 [ %indvars.iv.next25.i, %.split.us.i ], [ 0, %35 ]
  %38 = getelementptr inbounds nuw [0 x %struct.ParamExternData], ptr %37, i64 0, i64 %indvars.iv24.i
  %39 = getelementptr inbounds nuw i64, ptr %4, i64 %indvars.iv24.i
  %40 = load i64, ptr %39, align 8
  store i64 %40, ptr %38, align 8
  %41 = getelementptr inbounds nuw i8, ptr %38, i64 8
  store i8 0, ptr %41, align 8
  %42 = getelementptr inbounds nuw i8, ptr %38, i64 10
  store i16 1, ptr %42, align 2
  %43 = getelementptr inbounds nuw i32, ptr %3, i64 %indvars.iv24.i
  %44 = load i32, ptr %43, align 4
  %45 = getelementptr inbounds nuw i8, ptr %38, i64 12
  store i32 %44, ptr %45, align 4
  %indvars.iv.next25.i = add nuw nsw i64 %indvars.iv24.i, 1
  %exitcond28.not.i = icmp eq i64 %indvars.iv.next25.i, %wide.trip.count27.i
  br i1 %exitcond28.not.i, label %_SPI_convert_params.exit, label %.split.us.i, !llvm.loop !9

.split.i:                                         ; preds = %35, %.split.i
  %indvars.iv.i = phi i64 [ %indvars.iv.next.i, %.split.i ], [ 0, %35 ]
  %46 = getelementptr inbounds nuw [0 x %struct.ParamExternData], ptr %37, i64 0, i64 %indvars.iv.i
  %47 = getelementptr inbounds nuw i64, ptr %4, i64 %indvars.iv.i
  %48 = load i64, ptr %47, align 8
  store i64 %48, ptr %46, align 8
  %49 = getelementptr inbounds nuw i8, ptr %5, i64 %indvars.iv.i
  %50 = load i8, ptr %49, align 1
  %51 = icmp eq i8 %50, 110
  %52 = zext i1 %51 to i8
  %53 = getelementptr inbounds nuw i8, ptr %46, i64 8
  store i8 %52, ptr %53, align 8
  %54 = getelementptr inbounds nuw i8, ptr %46, i64 10
  store i16 1, ptr %54, align 2
  %55 = getelementptr inbounds nuw i32, ptr %3, i64 %indvars.iv.i
  %56 = load i32, ptr %55, align 4
  %57 = getelementptr inbounds nuw i8, ptr %46, i64 12
  store i32 %56, ptr %57, align 4
  %indvars.iv.next.i = add nuw nsw i64 %indvars.iv.i, 1
  %exitcond.not.i = icmp eq i64 %indvars.iv.next.i, %wide.trip.count27.i
  br i1 %exitcond.not.i, label %_SPI_convert_params.exit, label %.split.i, !llvm.loop !9

_SPI_convert_params.exit:                         ; preds = %.split.i, %.split.us.i, %_SPI_begin_call.exit.thread
  %.0.i20 = phi ptr [ null, %_SPI_begin_call.exit.thread ], [ %36, %.split.us.i ], [ %36, %.split.i ]
  call fastcc void @_SPI_prepare_plan(ptr noundef %1, ptr noundef %9)
  %58 = call fastcc ptr @SPI_cursor_open_internal(ptr noundef %0, ptr noundef nonnull %9, ptr noundef %.0.i20, i1 noundef zeroext %6)
  %59 = load ptr, ptr @_SPI_current, align 8
  %60 = getelementptr inbounds nuw i8, ptr %59, i64 32
  %61 = load ptr, ptr %60, align 8
  store ptr %61, ptr @CurrentMemoryContext, align 8
  %62 = getelementptr inbounds nuw i8, ptr %59, i64 16
  store i32 0, ptr %62, align 8
  %63 = getelementptr inbounds nuw i8, ptr %59, i64 40
  %64 = load ptr, ptr %63, align 8
  call void @MemoryContextReset(ptr noundef %64) #15
  call void @llvm.lifetime.end.p0(i64 64, ptr nonnull %9) #15
  ret ptr %58
}